target datalayout = "e-m:e-p270:32:32-p271:32:32-p272:64:64-i64:64-i128:128-f80:128-n8:16:32:64-S128"
target triple = "x86_64-pc-linux-gnu"

%struct._smb2_sesid_info_t = type { i64, i32, ptr, ptr, ptr, i16, i32, i32, [32 x i8], [16 x i8], [16 x i8], [16 x i8], [32 x i8], [32 x i8], ptr, ptr, ptr, [64 x i8] }
%struct._proto_node = type { ptr, ptr, ptr, ptr, ptr, ptr, ptr }
%struct.field_info = type { ptr, i32, i32, i32, i32, i32, i32, ptr, ptr, ptr, i32, i32 }

@hf_smb2_auth_frame = internal global i32 0, align 4
@hf_smb2_acct_name = internal global i32 0, align 4
@hf_smb2_domain_name = internal global i32 0, align 4
@hf_smb2_host_name = internal global i32 0, align 4
@.str.2130 = private unnamed_addr constant [9 x i8] c" Acct:%s\00", align 1
@.str.2131 = private unnamed_addr constant [11 x i8] c" Domain:%s\00", align 1
@.str.2132 = private unnamed_addr constant [9 x i8] c" Host:%s\00", align 1

; Function Attrs: inlinehint nounwind null_pointer_is_valid sspstrong uwtable
define internal void @proto_item_set_generated(ptr noundef %0) #4 {
  %2 = alloca ptr, align 8
  store ptr %0, ptr %2, align 8
  %3 = load ptr, ptr %2, align 8
  %4 = icmp ne ptr %3, null
  br i1 %4, label %5, label %24

5:                                                ; preds = %1
  br label %6

6:                                                ; preds = %5
  %7 = load ptr, ptr %2, align 8
  %8 = getelementptr inbounds nuw %struct._proto_node, ptr %7, i32 0, i32 5
  %9 = load ptr, ptr %8, align 8
  %10 = icmp ne ptr %9, null
  br i1 %10, label %11, label %22

11:                                               ; preds = %6
  %12 = load ptr, ptr %2, align 8
  %13 = getelementptr inbounds nuw %struct._proto_node, ptr %12, i32 0, i32 5
  %14 = load ptr, ptr %13, align 8
  %15 = getelementptr inbounds nuw %struct.field_info, ptr %14, i32 0, i32 6
  %16 = load i32, ptr %15, align 4
  %17 = or i32 %16, 2
  %18 = load ptr, ptr %2, align 8
  %19 = getelementptr inbounds nuw %struct._proto_node, ptr %18, i32 0, i32 5
  %20 = load ptr, ptr %19, align 8
  %21 = getelementptr inbounds nuw %struct.field_info, ptr %20, i32 0, i32 6
  store i32 %17, ptr %21, align 4
  br label %22

22:                                               ; preds = %11, %6
  br label %23

23:                                               ; preds = %22
  br label %24

24:                                               ; preds = %23, %1
  ret void
}

; Function Attrs: null_pointer_is_valid sspstrong uwtable
define internal void @smb2_add_session_info(ptr noundef %0, ptr noundef %1, ptr noundef %2, i32 noundef %3, ptr noundef %4) #0 {
  %6 = alloca ptr, align 8
  %7 = alloca ptr, align 8
  %8 = alloca ptr, align 8
  %9 = alloca i32, align 4
  %10 = alloca ptr, align 8
  %11 = alloca ptr, align 8
  %12 = alloca i32, align 4
  store ptr %0, ptr %6, align 8
  store ptr %1, ptr %7, align 8
  store ptr %2, ptr %8, align 8
  store i32 %3, ptr %9, align 4
  store ptr %4, ptr %10, align 8
  call void @llvm.lifetime.start.p0(i64 8, ptr %11) #13
  %13 = load ptr, ptr %10, align 8
  %14 = icmp ne ptr %13, null
  br i1 %14, label %16, label %15

15:                                               ; preds = %5
  store i32 1, ptr %12, align 4
  br label %89

16:                                               ; preds = %5
  %17 = load ptr, ptr %10, align 8
  %18 = getelementptr inbounds nuw %struct._smb2_sesid_info_t, ptr %17, i32 0, i32 2
  %19 = load ptr, ptr %18, align 8
  %20 = icmp ne ptr %19, null
  br i1 %20, label %21, label %35

21:                                               ; preds = %16
  %22 = load ptr, ptr %6, align 8
  %23 = load i32, ptr @hf_smb2_acct_name, align 4
  %24 = load ptr, ptr %8, align 8
  %25 = load i32, ptr %9, align 4
  %26 = load ptr, ptr %10, align 8
  %27 = getelementptr inbounds nuw %struct._smb2_sesid_info_t, ptr %26, i32 0, i32 2
  %28 = load ptr, ptr %27, align 8
  %29 = call ptr @proto_tree_add_string(ptr noundef %22, i32 noundef %23, ptr noundef %24, i32 noundef %25, i32 noundef 0, ptr noundef %28)
  store ptr %29, ptr %11, align 8
  %30 = load ptr, ptr %11, align 8
  call void @proto_item_set_generated(ptr noundef %30)
  %31 = load ptr, ptr %7, align 8
  %32 = load ptr, ptr %10, align 8
  %33 = getelementptr inbounds nuw %struct._smb2_sesid_info_t, ptr %32, i32 0, i32 2
  %34 = load ptr, ptr %33, align 8
  call void (ptr, ptr, ...) @proto_item_append_text(ptr noundef %31, ptr noundef @.str.2130, ptr noundef %34)
  br label %35

35:                                               ; preds = %21, %16
  %36 = load ptr, ptr %10, align 8
  %37 = getelementptr inbounds nuw %struct._smb2_sesid_info_t, ptr %36, i32 0, i32 3
  %38 = load ptr, ptr %37, align 8
  %39 = icmp ne ptr %38, null
  br i1 %39, label %40, label %54

40:                                               ; preds = %35
  %41 = load ptr, ptr %6, align 8
  %42 = load i32, ptr @hf_smb2_domain_name, align 4
  %43 = load ptr, ptr %8, align 8
  %44 = load i32, ptr %9, align 4
  %45 = load ptr, ptr %10, align 8
  %46 = getelementptr inbounds nuw %struct._smb2_sesid_info_t, ptr %45, i32 0, i32 3
  %47 = load ptr, ptr %46, align 8
  %48 = call ptr @proto_tree_add_string(ptr noundef %41, i32 noundef %42, ptr noundef %43, i32 noundef %44, i32 noundef 0, ptr noundef %47)
  store ptr %48, ptr %11, align 8
  %49 = load ptr, ptr %11, align 8
  call void @proto_item_set_generated(ptr noundef %49)
  %50 = load ptr, ptr %7, align 8
  %51 = load ptr, ptr %10, align 8
  %52 = getelementptr inbounds nuw %struct._smb2_sesid_info_t, ptr %51, i32 0, i32 3
  %53 = load ptr, ptr %52, align 8
  call void (ptr, ptr, ...) @proto_item_append_text(ptr noundef %50, ptr noundef @.str.2131, ptr noundef %53)
  br label %54

54:                                               ; preds = %40, %35
  %55 = load ptr, ptr %10, align 8
  %56 = getelementptr inbounds nuw %struct._smb2_sesid_info_t, ptr %55, i32 0, i32 4
  %57 = load ptr, ptr %56, align 8
  %58 = icmp ne ptr %57, null
  br i1 %58, label %59, label %73

59:                                               ; preds = %54
  %60 = load ptr, ptr %6, align 8
  %61 = load i32, ptr @hf_smb2_host_name, align 4
  %62 = load ptr, ptr %8, align 8
  %63 = load i32, ptr %9, align 4
  %64 = load ptr, ptr %10, align 8
  %65 = getelementptr inbounds nuw %struct._smb2_sesid_info_t, ptr %64, i32 0, i32 4
  %66 = load ptr, ptr %65, align 8
  %67 = call ptr @proto_tree_add_string(ptr noundef %60, i32 noundef %61, ptr noundef %62, i32 noundef %63, i32 noundef 0, ptr noundef %66)
  store ptr %67, ptr %11, align 8
  %68 = load ptr, ptr %11, align 8
  call void @proto_item_set_generated(ptr noundef %68)
  %69 = load ptr, ptr %7, align 8
  %70 = load ptr, ptr %10, align 8
  %71 = getelementptr inbounds nuw %struct._smb2_sesid_info_t, ptr %70, i32 0, i32 4
  %72 = load ptr, ptr %71, align 8
  call void (ptr, ptr, ...) @proto_item_append_text(ptr noundef %69, ptr noundef @.str.2132, ptr noundef %72)
  br label %73

73:                                               ; preds = %59, %54
  %74 = load ptr, ptr %10, align 8
  %75 = getelementptr inbounds nuw %struct._smb2_sesid_info_t, ptr %74, i32 0, i32 1
  %76 = load i32, ptr %75, align 8
  %77 = icmp ne i32 %76, -1
  br i1 %77, label %78, label %88

78:                                               ; preds = %73
  %79 = load ptr, ptr %6, align 8
  %80 = load i32, ptr @hf_smb2_auth_frame, align 4
  %81 = load ptr, ptr %8, align 8
  %82 = load i32, ptr %9, align 4
  %83 = load ptr, ptr %10, align 8
  %84 = getelementptr inbounds nuw %struct._smb2_sesid_info_t, ptr %83, i32 0, i32 1
  %85 = load i32, ptr %84, align 8
  %86 = call ptr @proto_tree_add_uint(ptr noundef %79, i32 noundef %80, ptr noundef %81, i32 noundef %82, i32 noundef 0, i32 noundef %85)
  store ptr %86, ptr %11, align 8
  %87 = load ptr, ptr %11, align 8
  call void @proto_item_set_generated(ptr noundef %87)
  br label %88

88:                                               ; preds = %78, %73
  store i32 0, ptr %12, align 4
  br label %89

89:                                               ; preds = %88, %15
  call void @llvm.lifetime.end.p0(i64 8, ptr %11) #13
  %90 = load i32, ptr %12, align 4
  switch i32 %90, label %92 [
    i32 0, label %91
    i32 1, label %91
  ]

91:                                               ; preds = %89, %89
  ret void

92:                                               ; preds = %89
  unreachable
}