; Function Attrs: null_pointer_is_valid sspstrong uwtable
define internal fastcc void @smb2_add_session_info(ptr noundef %0, ptr noundef %1, ptr noundef %2, i32 noundef range(i32 40, 45) %3, ptr noundef readonly captures(address_is_null) %4) unnamed_addr #0 {
  %.not = icmp eq ptr %4, null
  br i1 %.not, label %proto_item_set_generated.exit46, label %6

6:                                                ; preds = %5
  %7 = getelementptr inbounds nuw i8, ptr %4, i64 16
  %8 = load ptr, ptr %7, align 8
  %.not34 = icmp eq ptr %8, null
  br i1 %.not34, label %20, label %9

9:                                                ; preds = %6
  %10 = load i32, ptr @hf_smb2_acct_name, align 4
  %11 = tail call ptr @proto_tree_add_string(ptr noundef %0, i32 noundef %10, ptr noundef %2, i32 noundef %3, i32 noundef 0, ptr noundef nonnull %8)
  %.not.i = icmp eq ptr %11, null
  br i1 %.not.i, label %proto_item_set_generated.exit, label %12

12:                                               ; preds = %9
  %13 = getelementptr inbounds nuw i8, ptr %11, i64 40
  %14 = load ptr, ptr %13, align 8
  %.not5.i = icmp eq ptr %14, null
  br i1 %.not5.i, label %proto_item_set_generated.exit, label %15

15:                                               ; preds = %12
  %16 = getelementptr inbounds nuw i8, ptr %14, i64 28
  %17 = load i32, ptr %16, align 4
  %18 = or i32 %17, 2
  store i32 %18, ptr %16, align 4
  br label %proto_item_set_generated.exit

proto_item_set_generated.exit:                    ; preds = %9, %12, %15
  %19 = load ptr, ptr %7, align 8
  tail call void (ptr, ptr, ...) @proto_item_append_text(ptr noundef %1, ptr noundef nonnull @.str.2130, ptr noundef %19)
  br label %20

20:                                               ; preds = %proto_item_set_generated.exit, %6
  %21 = getelementptr inbounds nuw i8, ptr %4, i64 24
  %22 = load ptr, ptr %21, align 8
  %.not35 = icmp eq ptr %22, null
  br i1 %.not35, label %34, label %23

23:                                               ; preds = %20
  %24 = load i32, ptr @hf_smb2_domain_name, align 4
  %25 = tail call ptr @proto_tree_add_string(ptr noundef %0, i32 noundef %24, ptr noundef %2, i32 noundef %3, i32 noundef 0, ptr noundef nonnull %22)
  %.not.i38 = icmp eq ptr %25, null
  br i1 %.not.i38, label %proto_item_set_generated.exit40, label %26

26:                                               ; preds = %23
  %27 = getelementptr inbounds nuw i8, ptr %25, i64 40
  %28 = load ptr, ptr %27, align 8
  %.not5.i39 = icmp eq ptr %28, null
  br i1 %.not5.i39, label %proto_item_set_generated.exit40, label %29

29:                                               ; preds = %26
  %30 = getelementptr inbounds nuw i8, ptr %28, i64 28
  %31 = load i32, ptr %30, align 4
  %32 = or i32 %31, 2
  store i32 %32, ptr %30, align 4
  br label %proto_item_set_generated.exit40

proto_item_set_generated.exit40:                  ; preds = %23, %26, %29
  %33 = load ptr, ptr %21, align 8
  tail call void (ptr, ptr, ...) @proto_item_append_text(ptr noundef %1, ptr noundef nonnull @.str.2131, ptr noundef %33)
  br label %34

34:                                               ; preds = %proto_item_set_generated.exit40, %20
  %35 = getelementptr inbounds nuw i8, ptr %4, i64 32
  %36 = load ptr, ptr %35, align 8
  %.not36 = icmp eq ptr %36, null
  br i1 %.not36, label %48, label %37

37:                                               ; preds = %34
  %38 = load i32, ptr @hf_smb2_host_name, align 4
  %39 = tail call ptr @proto_tree_add_string(ptr noundef %0, i32 noundef %38, ptr noundef %2, i32 noundef %3, i32 noundef 0, ptr noundef nonnull %36)
  %.not.i41 = icmp eq ptr %39, null
  br i1 %.not.i41, label %proto_item_set_generated.exit43, label %40

40:                                               ; preds = %37
  %41 = getelementptr inbounds nuw i8, ptr %39, i64 40
  %42 = load ptr, ptr %41, align 8
  %.not5.i42 = icmp eq ptr %42, null
  br i1 %.not5.i42, label %proto_item_set_generated.exit43, label %43

43:                                               ; preds = %40
  %44 = getelementptr inbounds nuw i8, ptr %42, i64 28
  %45 = load i32, ptr %44, align 4
  %46 = or i32 %45, 2
  store i32 %46, ptr %44, align 4
  br label %proto_item_set_generated.exit43

proto_item_set_generated.exit43:                  ; preds = %37, %40, %43
  %47 = load ptr, ptr %35, align 8
  tail call void (ptr, ptr, ...) @proto_item_append_text(ptr noundef %1, ptr noundef nonnull @.str.2132, ptr noundef %47)
  br label %48

48:                                               ; preds = %proto_item_set_generated.exit43, %34
  %49 = getelementptr inbounds nuw i8, ptr %4, i64 8
  %50 = load i32, ptr %49, align 8
  %.not37 = icmp eq i32 %50, -1
  br i1 %.not37, label %proto_item_set_generated.exit46, label %51

51:                                               ; preds = %48
  %52 = load i32, ptr @hf_smb2_auth_frame, align 4
  %53 = tail call ptr @proto_tree_add_uint(ptr noundef %0, i32 noundef %52, ptr noundef %2, i32 noundef %3, i32 noundef 0, i32 noundef %50)
  %.not.i44 = icmp eq ptr %53, null
  br i1 %.not.i44, label %proto_item_set_generated.exit46, label %54

54:                                               ; preds = %51
  %55 = getelementptr inbounds nuw i8, ptr %53, i64 40
  %56 = load ptr, ptr %55, align 8
  %.not5.i45 = icmp eq ptr %56, null
  br i1 %.not5.i45, label %proto_item_set_generated.exit46, label %57

57:                                               ; preds = %54
  %58 = getelementptr inbounds nuw i8, ptr %56, i64 28
  %59 = load i32, ptr %58, align 4
  %60 = or i32 %59, 2
  store i32 %60, ptr %58, align 4
  br label %proto_item_set_generated.exit46

proto_item_set_generated.exit46:                  ; preds = %57, %54, %51, %48, %5
  ret void
}